target datalayout = "e-m:e-p270:32:32-p271:32:32-p272:64:64-i64:64-i128:128-f80:128-n8:16:32:64-S128"
target triple = "x86_64-pc-linux-gnu"

%struct.deparse_context = type { ptr, ptr, ptr, ptr, ptr, i32, i32, i32, i8, i8, i8, i8, ptr }
%union.ListCell = type { ptr }
%struct.List = type { i32, i32, i32, ptr, [0 x %union.ListCell] }
%struct.Node = type { i32 }
%struct.Expr = type { i32 }
%struct.SubscriptingRef = type { %struct.Expr, i32, i32, i32, i32, i32, ptr, ptr, ptr, ptr }
%struct.FieldStore = type { %struct.Expr, ptr, ptr, ptr, i32 }
%struct.CoerceToDomain = type { %struct.Expr, ptr, i32, i32, i32, i32, i32 }

@.str.2 = private unnamed_addr constant [12 x i8] c"ruleutils.c\00", align 1
@.str.93 = private unnamed_addr constant [4 x i8] c".%s\00", align 1
@.str.223 = private unnamed_addr constant [51 x i8] c"argument type %s of FieldStore is not a tuple type\00", align 1
@__func__.processIndirection = private unnamed_addr constant [19 x i8] c"processIndirection\00", align 1

; Function Attrs: inlinehint nounwind uwtable
define internal ptr @list_nth_cell(ptr noundef %0, i32 noundef %1) #2 {
  %3 = alloca ptr, align 8
  %4 = alloca i32, align 4
  store ptr %0, ptr %3, align 8
  store i32 %1, ptr %4, align 4
  %5 = load ptr, ptr %3, align 8
  %6 = getelementptr inbounds nuw %struct.List, ptr %5, i32 0, i32 3
  %7 = load ptr, ptr %6, align 8
  %8 = load i32, ptr %4, align 4
  %9 = sext i32 %8 to i64
  %10 = getelementptr inbounds %union.ListCell, ptr %7, i64 %9
  ret ptr %10
}

; Function Attrs: nounwind uwtable
define internal ptr @processIndirection(ptr noundef %0, ptr noundef %1) #0 {
  %3 = alloca ptr, align 8
  %4 = alloca ptr, align 8
  %5 = alloca ptr, align 8
  %6 = alloca ptr, align 8
  %7 = alloca ptr, align 8
  %8 = alloca i32, align 4
  %9 = alloca ptr, align 8
  %10 = alloca ptr, align 8
  %11 = alloca i32, align 4
  store ptr %0, ptr %3, align 8
  store ptr %1, ptr %4, align 8
  call void @llvm.lifetime.start.p0(i64 8, ptr %5) #10
  %12 = load ptr, ptr %4, align 8
  %13 = getelementptr inbounds nuw %struct.deparse_context, ptr %12, i32 0, i32 0
  %14 = load ptr, ptr %13, align 8
  store ptr %14, ptr %5, align 8
  call void @llvm.lifetime.start.p0(i64 8, ptr %6) #10
  store ptr null, ptr %6, align 8
  br label %15

15:                                               ; preds = %104, %2
  %16 = load ptr, ptr %3, align 8
  %17 = icmp eq ptr %16, null
  br i1 %17, label %18, label %19

18:                                               ; preds = %15
  br label %105

19:                                               ; preds = %15
  %20 = load ptr, ptr %3, align 8
  %21 = getelementptr inbounds nuw %struct.Node, ptr %20, i32 0, i32 0
  %22 = load i32, ptr %21, align 4
  %23 = icmp eq i32 %22, 26
  br i1 %23, label %24, label %64

24:                                               ; preds = %19
  call void @llvm.lifetime.start.p0(i64 8, ptr %7) #10
  %25 = load ptr, ptr %3, align 8
  store ptr %25, ptr %7, align 8
  call void @llvm.lifetime.start.p0(i64 4, ptr %8) #10
  call void @llvm.lifetime.start.p0(i64 8, ptr %9) #10
  %26 = load ptr, ptr %7, align 8
  %27 = getelementptr inbounds nuw %struct.FieldStore, ptr %26, i32 0, i32 4
  %28 = load i32, ptr %27, align 8
  %29 = call i32 @get_typ_typrelid(i32 noundef %28)
  store i32 %29, ptr %8, align 4
  %30 = load i32, ptr %8, align 4
  %31 = icmp ne i32 %30, 0
  br i1 %31, label %47, label %32

32:                                               ; preds = %24
  br label %33

33:                                               ; preds = %32
  br i1 true, label %34, label %36

34:                                               ; preds = %33
  %35 = call zeroext i1 @errstart_cold(i32 noundef 21, ptr noundef null) #11
  br i1 %35, label %38, label %44

36:                                               ; preds = %33
  %37 = call zeroext i1 @errstart(i32 noundef 21, ptr noundef null)
  br i1 %37, label %38, label %44

38:                                               ; preds = %36, %34
  %39 = load ptr, ptr %7, align 8
  %40 = getelementptr inbounds nuw %struct.FieldStore, ptr %39, i32 0, i32 4
  %41 = load i32, ptr %40, align 8
  %42 = call ptr @format_type_be(i32 noundef %41)
  %43 = call i32 (ptr, ...) @errmsg_internal(ptr noundef @.str.223, ptr noundef %42)
  call void @errfinish(ptr noundef @.str.2, i32 noundef 12851, ptr noundef @__func__.processIndirection)
  br label %44

44:                                               ; preds = %38, %36, %34
  unreachable

45:                                               ; No predecessors!
  br label %46

46:                                               ; preds = %45
  br label %47

47:                                               ; preds = %46, %24
  %48 = load i32, ptr %8, align 4
  %49 = load ptr, ptr %7, align 8
  %50 = getelementptr inbounds nuw %struct.FieldStore, ptr %49, i32 0, i32 3
  %51 = load ptr, ptr %50, align 8
  %52 = call ptr @list_nth_cell(ptr noundef %51, i32 noundef 0)
  %53 = load i32, ptr %52, align 8
  %54 = trunc i32 %53 to i16
  %55 = call ptr @get_attname(i32 noundef %48, i16 noundef signext %54, i1 noundef zeroext false)
  store ptr %55, ptr %9, align 8
  %56 = load ptr, ptr %5, align 8
  %57 = load ptr, ptr %9, align 8
  %58 = call ptr @quote_identifier(ptr noundef %57)
  call void (ptr, ptr, ...) @appendStringInfo(ptr noundef %56, ptr noundef @.str.93, ptr noundef %58)
  %59 = load ptr, ptr %7, align 8
  %60 = getelementptr inbounds nuw %struct.FieldStore, ptr %59, i32 0, i32 2
  %61 = load ptr, ptr %60, align 8
  %62 = call ptr @list_nth_cell(ptr noundef %61, i32 noundef 0)
  %63 = load ptr, ptr %62, align 8
  store ptr %63, ptr %3, align 8
  call void @llvm.lifetime.end.p0(i64 8, ptr %9) #10
  call void @llvm.lifetime.end.p0(i64 4, ptr %8) #10
  call void @llvm.lifetime.end.p0(i64 8, ptr %7) #10
  br label %104

64:                                               ; preds = %19
  %65 = load ptr, ptr %3, align 8
  %66 = getelementptr inbounds nuw %struct.Node, ptr %65, i32 0, i32 0
  %67 = load i32, ptr %66, align 4
  %68 = icmp eq i32 %67, 14
  br i1 %68, label %69, label %85

69:                                               ; preds = %64
  call void @llvm.lifetime.start.p0(i64 8, ptr %10) #10
  %70 = load ptr, ptr %3, align 8
  store ptr %70, ptr %10, align 8
  %71 = load ptr, ptr %10, align 8
  %72 = getelementptr inbounds nuw %struct.SubscriptingRef, ptr %71, i32 0, i32 9
  %73 = load ptr, ptr %72, align 8
  %74 = icmp eq ptr %73, null
  br i1 %74, label %75, label %76

75:                                               ; preds = %69
  store i32 2, ptr %11, align 4
  br label %82

76:                                               ; preds = %69
  %77 = load ptr, ptr %10, align 8
  %78 = load ptr, ptr %4, align 8
  call void @printSubscripts(ptr noundef %77, ptr noundef %78)
  %79 = load ptr, ptr %10, align 8
  %80 = getelementptr inbounds nuw %struct.SubscriptingRef, ptr %79, i32 0, i32 9
  %81 = load ptr, ptr %80, align 8
  store ptr %81, ptr %3, align 8
  store i32 0, ptr %11, align 4
  br label %82

82:                                               ; preds = %76, %75
  call void @llvm.lifetime.end.p0(i64 8, ptr %10) #10
  %83 = load i32, ptr %11, align 4
  switch i32 %83, label %118 [
    i32 0, label %84
    i32 2, label %105
  ]

84:                                               ; preds = %82
  br label %103

85:                                               ; preds = %64
  %86 = load ptr, ptr %3, align 8
  %87 = getelementptr inbounds nuw %struct.Node, ptr %86, i32 0, i32 0
  %88 = load i32, ptr %87, align 4
  %89 = icmp eq i32 %88, 55
  br i1 %89, label %90, label %101

90:                                               ; preds = %85
  %91 = load ptr, ptr %3, align 8
  store ptr %91, ptr %6, align 8
  %92 = load ptr, ptr %6, align 8
  %93 = getelementptr inbounds nuw %struct.CoerceToDomain, ptr %92, i32 0, i32 5
  %94 = load i32, ptr %93, align 4
  %95 = icmp ne i32 %94, 2
  br i1 %95, label %96, label %97

96:                                               ; preds = %90
  br label %105

97:                                               ; preds = %90
  %98 = load ptr, ptr %6, align 8
  %99 = getelementptr inbounds nuw %struct.CoerceToDomain, ptr %98, i32 0, i32 1
  %100 = load ptr, ptr %99, align 8
  store ptr %100, ptr %3, align 8
  br label %102

101:                                              ; preds = %85
  br label %105

102:                                              ; preds = %97
  br label %103

103:                                              ; preds = %102, %84
  br label %104

104:                                              ; preds = %103, %47
  br label %15

105:                                              ; preds = %101, %96, %82, %18
  %106 = load ptr, ptr %6, align 8
  %107 = icmp ne ptr %106, null
  br i1 %107, label %108, label %116

108:                                              ; preds = %105
  %109 = load ptr, ptr %3, align 8
  %110 = load ptr, ptr %6, align 8
  %111 = getelementptr inbounds nuw %struct.CoerceToDomain, ptr %110, i32 0, i32 1
  %112 = load ptr, ptr %111, align 8
  %113 = icmp eq ptr %109, %112
  br i1 %113, label %114, label %116

114:                                              ; preds = %108
  %115 = load ptr, ptr %6, align 8
  store ptr %115, ptr %3, align 8
  br label %116

116:                                              ; preds = %114, %108, %105
  %117 = load ptr, ptr %3, align 8
  store i32 1, ptr %11, align 4
  call void @llvm.lifetime.end.p0(i64 8, ptr %6) #10
  call void @llvm.lifetime.end.p0(i64 8, ptr %5) #10
  ret ptr %117

118:                                              ; preds = %82
  unreachable
}