; Function Attrs: nounwind uwtable
define internal fastcc ptr @processIndirection(ptr noundef readonly captures(address, ret: address, provenance) %0, ptr noundef %1) unnamed_addr #0 {
  %3 = load ptr, ptr %1, align 8
  %4 = icmp eq ptr %0, null
  br i1 %4, label %._crit_edge.thread, label %.lr.ph

.lr.ph:                                           ; preds = %2, %36
  %.02752 = phi ptr [ %.2, %36 ], [ %0, %2 ]
  %.02851 = phi ptr [ %.230, %36 ], [ null, %2 ]
  %5 = load i32, ptr %.02752, align 4
  switch i32 %5, label %._crit_edge [
    i32 26, label %6
    i32 14, label %27
    i32 55, label %31
  ]

6:                                                ; preds = %.lr.ph
  %7 = getelementptr inbounds nuw i8, ptr %.02752, i64 32
  %8 = load i32, ptr %7, align 8
  %9 = tail call i32 @get_typ_typrelid(i32 noundef %8) #11
  %.not33 = icmp eq i32 %9, 0
  br i1 %.not33, label %10, label %16

10:                                               ; preds = %6
  %11 = getelementptr inbounds nuw i8, ptr %.02752, i64 32
  %12 = tail call zeroext i1 @errstart_cold(i32 noundef 21, ptr noundef null) #12
  tail call void @llvm.assume(i1 %12)
  %13 = load i32, ptr %11, align 8
  %14 = tail call ptr @format_type_be(i32 noundef %13) #11
  %15 = tail call i32 (ptr, ...) @errmsg_internal(ptr noundef nonnull @.str.223, ptr noundef %14) #11
  tail call void @errfinish(ptr noundef nonnull @.str.2, i32 noundef 12851, ptr noundef nonnull @__func__.processIndirection) #11
  unreachable

16:                                               ; preds = %6
  %17 = getelementptr inbounds nuw i8, ptr %.02752, i64 24
  %18 = load ptr, ptr %17, align 8
  %19 = getelementptr i8, ptr %18, i64 16
  %.val35 = load ptr, ptr %19, align 8
  %20 = load i32, ptr %.val35, align 8
  %21 = trunc i32 %20 to i16
  %22 = tail call ptr @get_attname(i32 noundef %9, i16 noundef signext %21, i1 noundef zeroext false) #11
  %23 = tail call ptr @quote_identifier(ptr noundef %22)
  tail call void (ptr, ptr, ...) @appendStringInfo(ptr noundef %3, ptr noundef nonnull @.str.93, ptr noundef %23) #11
  %24 = getelementptr inbounds nuw i8, ptr %.02752, i64 16
  %25 = load ptr, ptr %24, align 8
  %26 = getelementptr i8, ptr %25, i64 16
  %.val = load ptr, ptr %26, align 8
  br label %36

27:                                               ; preds = %.lr.ph
  %28 = getelementptr inbounds nuw i8, ptr %.02752, i64 48
  %29 = load ptr, ptr %28, align 8
  %30 = icmp eq ptr %29, null
  br i1 %30, label %._crit_edge, label %.thread

.thread:                                          ; preds = %27
  tail call fastcc void @printSubscripts(ptr noundef %.02752, ptr noundef nonnull %1)
  br label %36

31:                                               ; preds = %.lr.ph
  %32 = getelementptr inbounds nuw i8, ptr %.02752, i64 28
  %33 = load i32, ptr %32, align 4
  %.not = icmp eq i32 %33, 2
  br i1 %.not, label %34, label %.thread39

34:                                               ; preds = %31
  %35 = getelementptr inbounds nuw i8, ptr %.02752, i64 8
  br label %36

36:                                               ; preds = %.thread, %34, %16
  %.230 = phi ptr [ %.02851, %16 ], [ %.02752, %34 ], [ %.02851, %.thread ]
  %.2.in = phi ptr [ %.val, %16 ], [ %35, %34 ], [ %28, %.thread ]
  %.2 = load ptr, ptr %.2.in, align 8
  %37 = icmp eq ptr %.2, null
  br i1 %37, label %._crit_edge, label %.lr.ph

._crit_edge:                                      ; preds = %36, %.lr.ph, %27
  %.028.lcssa = phi ptr [ %.230, %36 ], [ %.02851, %.lr.ph ], [ %.02851, %27 ]
  %.027.lcssa = phi ptr [ null, %36 ], [ %.02752, %.lr.ph ], [ %.02752, %27 ]
  %.not34 = icmp eq ptr %.028.lcssa, null
  br i1 %.not34, label %._crit_edge.thread, label %.thread39

.thread39:                                        ; preds = %31, %._crit_edge
  %.02747 = phi ptr [ %.027.lcssa, %._crit_edge ], [ %.02752, %31 ]
  %.12943 = phi ptr [ %.028.lcssa, %._crit_edge ], [ %.02752, %31 ]
  %38 = getelementptr inbounds nuw i8, ptr %.12943, i64 8
  %39 = load ptr, ptr %38, align 8
  %40 = icmp eq ptr %.02747, %39
  %spec.select = select i1 %40, ptr %.12943, ptr %.02747
  br label %._crit_edge.thread

._crit_edge.thread:                               ; preds = %2, %.thread39, %._crit_edge
  %.4 = phi ptr [ %.027.lcssa, %._crit_edge ], [ %spec.select, %.thread39 ], [ null, %2 ]
  ret ptr %.4
}